target datalayout = "e-m:e-p270:32:32-p271:32:32-p272:64:64-i64:64-i128:128-f80:128-n8:16:32:64-S128"
target triple = "x86_64-pc-linux-gnu"

%struct.mbedtls_ssl_config = type { i32, i32, i8, i8, i8, i8, i8, i8, i8, i8, i8, i8, i16, i8, i8, i8, ptr, i32, ptr, ptr, ptr, ptr, ptr, ptr, ptr, ptr, ptr, ptr, ptr, ptr, ptr, ptr, ptr, ptr, ptr, ptr, ptr, i64, ptr, ptr, ptr, ptr, ptr, ptr, ptr, ptr, %struct.mbedtls_mpi, %struct.mbedtls_mpi, ptr, i64, ptr, i64, ptr, i32, i32, i32, i32, [8 x i8], i32, i32, %union.mbedtls_ssl_user_data_t, ptr, ptr }
%struct.mbedtls_mpi = type { ptr, i16, i16 }
%union.mbedtls_ssl_user_data_t = type { i64 }
%struct.mbedtls_ssl_context = type { ptr, i32, i32, i32, i32, i32, ptr, ptr, ptr, ptr, ptr, ptr, ptr, ptr, ptr, ptr, ptr, ptr, ptr, ptr, ptr, ptr, ptr, ptr, ptr, ptr, ptr, ptr, ptr, ptr, ptr, ptr, ptr, i32, i64, i64, i16, i64, i64, i64, i64, i32, i32, i8, i8, i32, i8, ptr, ptr, ptr, ptr, ptr, ptr, ptr, i32, i64, i64, [8 x i8], i16, ptr, ptr, ptr, i64, i32, i64, [12 x i8], [12 x i8], [32 x i8], i8, i8, ptr, ptr, %union.mbedtls_ssl_user_data_t }

@.str = private unnamed_addr constant [121 x i8] c"generated/home/dtcxzyw/WorkSpace/Projects/compilers/llvm-opt-benchmark/bench/lief/bench_build/mbed_src/library/ssl_tls.c\00", align 1
@.str.22 = private unnamed_addr constant [49 x i8] c"You must use mbedtls_ssl_set_timer_cb() for DTLS\00", align 1
@.str.23 = private unnamed_addr constant [13 x i8] c"=> handshake\00", align 1
@.str.24 = private unnamed_addr constant [13 x i8] c"<= handshake\00", align 1

; Function Attrs: nounwind uwtable
define hidden i32 @mbedtls_ssl_handshake(ptr noundef %0) #0 {
  %2 = alloca i32, align 4
  %3 = alloca ptr, align 8
  %4 = alloca i32, align 4
  %5 = alloca i32, align 4
  store ptr %0, ptr %3, align 8, !tbaa !27
  call void @llvm.lifetime.start.p0(i64 4, ptr %4) #11
  store i32 0, ptr %4, align 4, !tbaa !10
  %6 = load ptr, ptr %3, align 8, !tbaa !27
  %7 = icmp eq ptr %6, null
  br i1 %7, label %13, label %8

8:                                                ; preds = %1
  %9 = load ptr, ptr %3, align 8, !tbaa !27
  %10 = getelementptr inbounds nuw %struct.mbedtls_ssl_context, ptr %9, i32 0, i32 0
  %11 = load ptr, ptr %10, align 8, !tbaa !30
  %12 = icmp eq ptr %11, null
  br i1 %12, label %13, label %14

13:                                               ; preds = %8, %1
  store i32 -28928, ptr %2, align 4
  store i32 1, ptr %5, align 4
  br label %51

14:                                               ; preds = %8
  %15 = load ptr, ptr %3, align 8, !tbaa !27
  %16 = getelementptr inbounds nuw %struct.mbedtls_ssl_context, ptr %15, i32 0, i32 0
  %17 = load ptr, ptr %16, align 8, !tbaa !30
  %18 = getelementptr inbounds nuw %struct.mbedtls_ssl_config, ptr %17, i32 0, i32 3
  %19 = load i8, ptr %18, align 1, !tbaa !35
  %20 = zext i8 %19 to i32
  %21 = icmp eq i32 %20, 1
  br i1 %21, label %22, label %34

22:                                               ; preds = %14
  %23 = load ptr, ptr %3, align 8, !tbaa !27
  %24 = getelementptr inbounds nuw %struct.mbedtls_ssl_context, ptr %23, i32 0, i32 23
  %25 = load ptr, ptr %24, align 8, !tbaa !169
  %26 = icmp eq ptr %25, null
  br i1 %26, label %32, label %27

27:                                               ; preds = %22
  %28 = load ptr, ptr %3, align 8, !tbaa !27
  %29 = getelementptr inbounds nuw %struct.mbedtls_ssl_context, ptr %28, i32 0, i32 24
  %30 = load ptr, ptr %29, align 8, !tbaa !170
  %31 = icmp eq ptr %30, null
  br i1 %31, label %32, label %34

32:                                               ; preds = %27, %22
  %33 = load ptr, ptr %3, align 8, !tbaa !27
  call void (ptr, i32, ptr, i32, ptr, ...) @mbedtls_debug_print_msg(ptr noundef %33, i32 noundef 1, ptr noundef @.str, i32 noundef 4601, ptr noundef @.str.22)
  store i32 -28928, ptr %2, align 4
  store i32 1, ptr %5, align 4
  br label %51

34:                                               ; preds = %27, %14
  %35 = load ptr, ptr %3, align 8, !tbaa !27
  call void (ptr, i32, ptr, i32, ptr, ...) @mbedtls_debug_print_msg(ptr noundef %35, i32 noundef 2, ptr noundef @.str, i32 noundef 4606, ptr noundef @.str.23)
  br label %36

36:                                               ; preds = %47, %34
  %37 = load ptr, ptr %3, align 8, !tbaa !27
  %38 = getelementptr inbounds nuw %struct.mbedtls_ssl_context, ptr %37, i32 0, i32 1
  %39 = load i32, ptr %38, align 8, !tbaa !49
  %40 = icmp ne i32 %39, 27
  br i1 %40, label %41, label %48

41:                                               ; preds = %36
  %42 = load ptr, ptr %3, align 8, !tbaa !27
  %43 = call i32 @mbedtls_ssl_handshake_step(ptr noundef %42)
  store i32 %43, ptr %4, align 4, !tbaa !10
  %44 = load i32, ptr %4, align 4, !tbaa !10
  %45 = icmp ne i32 %44, 0
  br i1 %45, label %46, label %47

46:                                               ; preds = %41
  br label %48

47:                                               ; preds = %41
  br label %36, !llvm.loop !248

48:                                               ; preds = %46, %36
  %49 = load ptr, ptr %3, align 8, !tbaa !27
  call void (ptr, i32, ptr, i32, ptr, ...) @mbedtls_debug_print_msg(ptr noundef %49, i32 noundef 2, ptr noundef @.str, i32 noundef 4617, ptr noundef @.str.24)
  %50 = load i32, ptr %4, align 4, !tbaa !10
  store i32 %50, ptr %2, align 4
  store i32 1, ptr %5, align 4
  br label %51

51:                                               ; preds = %48, %32, %13
  call void @llvm.lifetime.end.p0(i64 4, ptr %4) #11
  %52 = load i32, ptr %2, align 4
  ret i32 %52
}