; Function Attrs: nounwind uwtable
define hidden i32 @mbedtls_ssl_handshake(ptr noundef %0) local_unnamed_addr #1 {
  %2 = icmp eq ptr %0, null
  br i1 %2, label %26, label %3

3:                                                ; preds = %1
  %4 = load ptr, ptr %0, align 8, !tbaa !23
  %5 = icmp eq ptr %4, null
  br i1 %5, label %26, label %6

6:                                                ; preds = %3
  %7 = getelementptr inbounds nuw i8, ptr %4, i64 9
  %8 = load i8, ptr %7, align 1, !tbaa !29
  %9 = icmp eq i8 %8, 1
  br i1 %9, label %10, label %19

10:                                               ; preds = %6
  %11 = getelementptr inbounds nuw i8, ptr %0, i64 168
  %12 = load ptr, ptr %11, align 8, !tbaa !147
  %13 = icmp eq ptr %12, null
  br i1 %13, label %18, label %14

14:                                               ; preds = %10
  %15 = getelementptr inbounds nuw i8, ptr %0, i64 176
  %16 = load ptr, ptr %15, align 8, !tbaa !148
  %17 = icmp eq ptr %16, null
  br i1 %17, label %18, label %19

18:                                               ; preds = %14, %10
  tail call void (ptr, i32, ptr, i32, ptr, ...) @mbedtls_debug_print_msg(ptr noundef nonnull %0, i32 noundef 1, ptr noundef nonnull @.str, i32 noundef 4601, ptr noundef nonnull @.str.22) #26
  br label %26

19:                                               ; preds = %14, %6
  tail call void (ptr, i32, ptr, i32, ptr, ...) @mbedtls_debug_print_msg(ptr noundef nonnull %0, i32 noundef 2, ptr noundef nonnull @.str, i32 noundef 4606, ptr noundef nonnull @.str.23) #26
  %20 = getelementptr inbounds nuw i8, ptr %0, i64 8
  br label %21

21:                                               ; preds = %23, %19
  %22 = load i32, ptr %20, align 8, !tbaa !34
  %.not = icmp eq i32 %22, 27
  br i1 %.not, label %25, label %23

23:                                               ; preds = %21
  %24 = tail call i32 @mbedtls_ssl_handshake_step(ptr noundef nonnull %0)
  %.not17 = icmp eq i32 %24, 0
  br i1 %.not17, label %21, label %25, !llvm.loop !223

25:                                               ; preds = %23, %21
  %.1 = phi i32 [ %24, %23 ], [ 0, %21 ]
  tail call void (ptr, i32, ptr, i32, ptr, ...) @mbedtls_debug_print_msg(ptr noundef nonnull %0, i32 noundef 2, ptr noundef nonnull @.str, i32 noundef 4617, ptr noundef nonnull @.str.24) #26
  br label %26

26:                                               ; preds = %1, %3, %25, %18
  %.012 = phi i32 [ -28928, %18 ], [ %.1, %25 ], [ -28928, %3 ], [ -28928, %1 ]
  ret i32 %.012
}